target datalayout = "e-m:e-p270:32:32-p271:32:32-p272:64:64-i64:64-i128:128-f80:128-n8:16:32:64-S128"
target triple = "x86_64-pc-linux-gnu"

%struct.Aig_Man_t_ = type { ptr, ptr, ptr, ptr, ptr, ptr, ptr, %struct.Aig_Obj_t_, i32, i32, i32, i32, i32, i32, [7 x i32], i32, ptr, i32, ptr, i32, ptr, i32, i32, i32, ptr, i32, i32, i32, i32, i32, ptr, ptr, i32, ptr, ptr, i32, ptr, ptr, i32, i32, i32, ptr, ptr, ptr, ptr, ptr, ptr, ptr, ptr, ptr, ptr, ptr, ptr, ptr, ptr, i32, ptr, ptr, ptr, ptr, i32, i64, i64, i64, ptr, ptr }
%struct.Aig_Obj_t_ = type { %union.anon, ptr, ptr, i64, i32, i32, %union.anon.0 }
%union.anon = type { ptr }
%union.anon.0 = type { ptr }
%struct.timespec = type { i64, i64 }

@.str.10 = private unnamed_addr constant [27 x i8] c"Networks are equivalent.  \00", align 1
@.str.11 = private unnamed_addr constant [5 x i8] c"%s =\00", align 1
@.str.12 = private unnamed_addr constant [5 x i8] c"Time\00", align 1
@.str.13 = private unnamed_addr constant [11 x i8] c"%9.2f sec\0A\00", align 1
@.str.14 = private unnamed_addr constant [31 x i8] c"Networks are NOT EQUIVALENT.  \00", align 1
@.str.15 = private unnamed_addr constant [35 x i8] c"Counter-example is not available.\0A\00", align 1
@.str.16 = private unnamed_addr constant [42 x i8] c"Counter-example verification has failed.\0A\00", align 1
@.str.17 = private unnamed_addr constant [43 x i8] c"Primary output %d has failed in frame %d.\0A\00", align 1
@.str.18 = private unnamed_addr constant [45 x i8] c"Flop input %d has failed in the last frame.\0A\00", align 1
@.str.19 = private unnamed_addr constant [63 x i8] c"The counter-example detected %d incorrect POs or flop inputs.\0A\00", align 1
@.str.20 = private unnamed_addr constant [27 x i8] c"Networks are UNDECIDED.   \00", align 1
@stdout = external global ptr, align 8

; Function Attrs: inlinehint nounwind uwtable
define internal i32 @Saig_ManPoNum(ptr noundef %0) #3 {
  %2 = alloca ptr, align 8
  store ptr %0, ptr %2, align 8, !tbaa !3
  %3 = load ptr, ptr %2, align 8, !tbaa !3
  %4 = getelementptr inbounds nuw %struct.Aig_Man_t_, ptr %3, i32 0, i32 10
  %5 = load i32, ptr %4, align 8, !tbaa !35
  ret i32 %5
}

; Function Attrs: nounwind uwtable
define ptr @Saig_ManCreateMiterTwo(ptr noundef %0, ptr noundef %1, i32 noundef %2) #0 {
  %4 = alloca ptr, align 8
  %5 = alloca ptr, align 8
  %6 = alloca i32, align 4
  %7 = alloca ptr, align 8
  %8 = alloca ptr, align 8
  %9 = alloca ptr, align 8
  store ptr %0, ptr %4, align 8, !tbaa !3
  store ptr %1, ptr %5, align 8, !tbaa !3
  store i32 %2, ptr %6, align 4, !tbaa !14
  call void @llvm.lifetime.start.p0(i64 8, ptr %7) #10
  call void @llvm.lifetime.start.p0(i64 8, ptr %8) #10
  call void @llvm.lifetime.start.p0(i64 8, ptr %9) #10
  %10 = load ptr, ptr %4, align 8, !tbaa !3
  %11 = load ptr, ptr %4, align 8, !tbaa !3
  %12 = load i32, ptr %6, align 4, !tbaa !14
  %13 = call ptr @Saig_ManUnrollTwo(ptr noundef %10, ptr noundef %11, i32 noundef %12)
  store ptr %13, ptr %7, align 8, !tbaa !3
  %14 = load ptr, ptr %5, align 8, !tbaa !3
  %15 = load ptr, ptr %4, align 8, !tbaa !3
  %16 = load i32, ptr %6, align 4, !tbaa !14
  %17 = call ptr @Saig_ManUnrollTwo(ptr noundef %14, ptr noundef %15, i32 noundef %16)
  store ptr %17, ptr %8, align 8, !tbaa !3
  %18 = load ptr, ptr %7, align 8, !tbaa !3
  %19 = load ptr, ptr %8, align 8, !tbaa !3
  %20 = call ptr @Saig_ManCreateMiterComb(ptr noundef %18, ptr noundef %19, i32 noundef 0)
  store ptr %20, ptr %9, align 8, !tbaa !3
  %21 = load ptr, ptr %7, align 8, !tbaa !3
  call void @Aig_ManStop(ptr noundef %21)
  %22 = load ptr, ptr %8, align 8, !tbaa !3
  call void @Aig_ManStop(ptr noundef %22)
  %23 = load ptr, ptr %9, align 8, !tbaa !3
  call void @llvm.lifetime.end.p0(i64 8, ptr %9) #10
  call void @llvm.lifetime.end.p0(i64 8, ptr %8) #10
  call void @llvm.lifetime.end.p0(i64 8, ptr %7) #10
  ret ptr %23
}

; Function Attrs: inlinehint nounwind uwtable
define internal i64 @Abc_Clock() #3 {
  %1 = alloca i64, align 8
  %2 = alloca %struct.timespec, align 8
  %3 = alloca i32, align 4
  %4 = alloca i64, align 8
  call void @llvm.lifetime.start.p0(i64 16, ptr %2) #10
  %5 = call i32 @clock_gettime(i32 noundef 1, ptr noundef %2) #10
  %6 = icmp slt i32 %5, 0
  br i1 %6, label %7, label %8

7:                                                ; preds = %0
  store i64 -1, ptr %1, align 8
  store i32 1, ptr %3, align 4
  br label %19

8:                                                ; preds = %0
  call void @llvm.lifetime.start.p0(i64 8, ptr %4) #10
  %9 = getelementptr inbounds nuw %struct.timespec, ptr %2, i32 0, i32 0
  %10 = load i64, ptr %9, align 8, !tbaa !123
  %11 = mul nsw i64 %10, 1000000
  store i64 %11, ptr %4, align 8, !tbaa !115
  %12 = getelementptr inbounds nuw %struct.timespec, ptr %2, i32 0, i32 1
  %13 = load i64, ptr %12, align 8, !tbaa !125
  %14 = mul nsw i64 %13, 1000000
  %15 = sdiv i64 %14, 1000000000
  %16 = load i64, ptr %4, align 8, !tbaa !115
  %17 = add nsw i64 %16, %15
  store i64 %17, ptr %4, align 8, !tbaa !115
  %18 = load i64, ptr %4, align 8, !tbaa !115
  store i64 %18, ptr %1, align 8
  store i32 1, ptr %3, align 4
  call void @llvm.lifetime.end.p0(i64 8, ptr %4) #10
  br label %19

19:                                               ; preds = %8, %7
  call void @llvm.lifetime.end.p0(i64 16, ptr %2) #10
  %20 = load i64, ptr %1, align 8
  ret i64 %20
}

; Function Attrs: nounwind uwtable
define i32 @Ssw_SecSpecial(ptr noundef %0, ptr noundef %1, i32 noundef %2, i32 noundef %3) #0 {
  %5 = alloca ptr, align 8
  %6 = alloca ptr, align 8
  %7 = alloca i32, align 4
  %8 = alloca i32, align 4
  %9 = alloca i32, align 4
  %10 = alloca i32, align 4
  %11 = alloca ptr, align 8
  %12 = alloca i32, align 4
  %13 = alloca i64, align 8
  store ptr %0, ptr %5, align 8, !tbaa !3
  store ptr %1, ptr %6, align 8, !tbaa !3
  store i32 %2, ptr %7, align 4, !tbaa !14
  store i32 %3, ptr %8, align 4, !tbaa !14
  call void @llvm.lifetime.start.p0(i64 4, ptr %9) #10
  call void @llvm.lifetime.start.p0(i64 4, ptr %10) #10
  call void @llvm.lifetime.start.p0(i64 8, ptr %11) #10
  call void @llvm.lifetime.start.p0(i64 4, ptr %12) #10
  call void @llvm.lifetime.start.p0(i64 8, ptr %13) #10
  %14 = call i64 @Abc_Clock()
  store i64 %14, ptr %13, align 8, !tbaa !115
  %15 = load i32, ptr %8, align 4, !tbaa !14
  %16 = icmp ne i32 %15, 0
  br i1 %16, label %17, label %20

17:                                               ; preds = %4
  %18 = load ptr, ptr %5, align 8, !tbaa !3
  call void @Aig_ManPrintStats(ptr noundef %18)
  %19 = load ptr, ptr %6, align 8, !tbaa !3
  call void @Aig_ManPrintStats(ptr noundef %19)
  br label %20

20:                                               ; preds = %17, %4
  %21 = load ptr, ptr %5, align 8, !tbaa !3
  %22 = load ptr, ptr %6, align 8, !tbaa !3
  %23 = load i32, ptr %7, align 4, !tbaa !14
  %24 = call ptr @Saig_ManCreateMiterTwo(ptr noundef %21, ptr noundef %22, i32 noundef %23)
  store ptr %24, ptr %11, align 8, !tbaa !3
  %25 = load i32, ptr %8, align 4, !tbaa !14
  %26 = icmp ne i32 %25, 0
  br i1 %26, label %27, label %29

27:                                               ; preds = %20
  %28 = load ptr, ptr %11, align 8, !tbaa !3
  call void @Aig_ManPrintStats(ptr noundef %28)
  br label %29

29:                                               ; preds = %27, %20
  %30 = load i32, ptr %8, align 4, !tbaa !14
  %31 = call i32 @Fra_FraigCec(ptr noundef %11, i32 noundef 100000, i32 noundef %30)
  store i32 %31, ptr %12, align 4, !tbaa !14
  %32 = load i32, ptr %12, align 4, !tbaa !14
  %33 = icmp eq i32 %32, 1
  br i1 %33, label %34, label %42

34:                                               ; preds = %29
  %35 = call i32 (ptr, ...) @printf(ptr noundef @.str.10)
  call void (i32, ptr, ...) @Abc_Print(i32 noundef 1, ptr noundef @.str.11, ptr noundef @.str.12)
  %36 = call i64 @Abc_Clock()
  %37 = load i64, ptr %13, align 8, !tbaa !115
  %38 = sub nsw i64 %36, %37
  %39 = sitofp i64 %38 to double
  %40 = fmul double 1.000000e+00, %39
  %41 = fdiv double %40, 1.000000e+06
  call void (i32, ptr, ...) @Abc_Print(i32 noundef 1, ptr noundef @.str.13, double noundef %41)
  br label %108

42:                                               ; preds = %29
  %43 = load i32, ptr %12, align 4, !tbaa !14
  %44 = icmp eq i32 %43, 0
  br i1 %44, label %45, label %99

45:                                               ; preds = %42
  %46 = call i32 (ptr, ...) @printf(ptr noundef @.str.14)
  call void (i32, ptr, ...) @Abc_Print(i32 noundef 1, ptr noundef @.str.11, ptr noundef @.str.12)
  %47 = call i64 @Abc_Clock()
  %48 = load i64, ptr %13, align 8, !tbaa !115
  %49 = sub nsw i64 %47, %48
  %50 = sitofp i64 %49 to double
  %51 = fmul double 1.000000e+00, %50
  %52 = fdiv double %51, 1.000000e+06
  call void (i32, ptr, ...) @Abc_Print(i32 noundef 1, ptr noundef @.str.13, double noundef %52)
  %53 = load ptr, ptr %11, align 8, !tbaa !3
  %54 = getelementptr inbounds nuw %struct.Aig_Man_t_, ptr %53, i32 0, i32 36
  %55 = load ptr, ptr %54, align 8, !tbaa !116
  %56 = icmp eq ptr %55, null
  br i1 %56, label %57, label %59

57:                                               ; preds = %45
  %58 = call i32 (ptr, ...) @printf(ptr noundef @.str.15)
  br label %98

59:                                               ; preds = %45
  %60 = load ptr, ptr %11, align 8, !tbaa !3
  %61 = load ptr, ptr %11, align 8, !tbaa !3
  %62 = getelementptr inbounds nuw %struct.Aig_Man_t_, ptr %61, i32 0, i32 36
  %63 = load ptr, ptr %62, align 8, !tbaa !116
  %64 = call i32 @Ssw_SecCexResimulate(ptr noundef %60, ptr noundef %63, ptr noundef %10)
  store i32 %64, ptr %9, align 4, !tbaa !14
  %65 = load i32, ptr %9, align 4, !tbaa !14
  %66 = icmp eq i32 %65, -1
  br i1 %66, label %67, label %69

67:                                               ; preds = %59
  %68 = call i32 (ptr, ...) @printf(ptr noundef @.str.16)
  br label %97

69:                                               ; preds = %59
  %70 = load i32, ptr %9, align 4, !tbaa !14
  %71 = load ptr, ptr %5, align 8, !tbaa !3
  %72 = call i32 @Saig_ManPoNum(ptr noundef %71)
  %73 = load i32, ptr %7, align 4, !tbaa !14
  %74 = mul nsw i32 %72, %73
  %75 = icmp slt i32 %70, %74
  br i1 %75, label %76, label %86

76:                                               ; preds = %69
  %77 = load i32, ptr %9, align 4, !tbaa !14
  %78 = load ptr, ptr %5, align 8, !tbaa !3
  %79 = call i32 @Saig_ManPoNum(ptr noundef %78)
  %80 = srem i32 %77, %79
  %81 = load i32, ptr %9, align 4, !tbaa !14
  %82 = load ptr, ptr %5, align 8, !tbaa !3
  %83 = call i32 @Saig_ManPoNum(ptr noundef %82)
  %84 = sdiv i32 %81, %83
  %85 = call i32 (ptr, ...) @printf(ptr noundef @.str.17, i32 noundef %80, i32 noundef %84)
  br label %94

86:                                               ; preds = %69
  %87 = load i32, ptr %9, align 4, !tbaa !14
  %88 = load ptr, ptr %5, align 8, !tbaa !3
  %89 = call i32 @Saig_ManPoNum(ptr noundef %88)
  %90 = load i32, ptr %7, align 4, !tbaa !14
  %91 = mul nsw i32 %89, %90
  %92 = sub nsw i32 %87, %91
  %93 = call i32 (ptr, ...) @printf(ptr noundef @.str.18, i32 noundef %92)
  br label %94

94:                                               ; preds = %86, %76
  %95 = load i32, ptr %10, align 4, !tbaa !14
  %96 = call i32 (ptr, ...) @printf(ptr noundef @.str.19, i32 noundef %95)
  br label %97

97:                                               ; preds = %94, %67
  br label %98

98:                                               ; preds = %97, %57
  br label %107

99:                                               ; preds = %42
  %100 = call i32 (ptr, ...) @printf(ptr noundef @.str.20)
  call void (i32, ptr, ...) @Abc_Print(i32 noundef 1, ptr noundef @.str.11, ptr noundef @.str.12)
  %101 = call i64 @Abc_Clock()
  %102 = load i64, ptr %13, align 8, !tbaa !115
  %103 = sub nsw i64 %101, %102
  %104 = sitofp i64 %103 to double
  %105 = fmul double 1.000000e+00, %104
  %106 = fdiv double %105, 1.000000e+06
  call void (i32, ptr, ...) @Abc_Print(i32 noundef 1, ptr noundef @.str.13, double noundef %106)
  br label %107

107:                                              ; preds = %99, %98
  br label %108

108:                                              ; preds = %107, %34
  %109 = load ptr, ptr @stdout, align 8, !tbaa !117
  %110 = call i32 @fflush(ptr noundef %109)
  %111 = load ptr, ptr %11, align 8, !tbaa !3
  call void @Aig_ManStop(ptr noundef %111)
  %112 = load i32, ptr %12, align 4, !tbaa !14
  call void @llvm.lifetime.end.p0(i64 8, ptr %13) #10
  call void @llvm.lifetime.end.p0(i64 4, ptr %12) #10
  call void @llvm.lifetime.end.p0(i64 8, ptr %11) #10
  call void @llvm.lifetime.end.p0(i64 4, ptr %10) #10
  call void @llvm.lifetime.end.p0(i64 4, ptr %9) #10
  ret i32 %112
}